; Function Attrs: nounwind uwtable
define i32 @Abc_NtkBddCofCount(ptr noundef %0, ptr noundef %1, ptr noundef %2, i32 noundef %3) local_unnamed_addr #0 {
  %5 = tail call noalias dereferenceable_or_null(16) ptr @malloc(i64 noundef 16) #17
  %6 = getelementptr inbounds nuw i8, ptr %5, i64 4
  store i32 0, ptr %6, align 4
  store i32 100, ptr %5, align 8
  %7 = tail call noalias dereferenceable_or_null(800) ptr @malloc(i64 noundef 800) #17
  %8 = getelementptr inbounds nuw i8, ptr %5, i64 8
  store ptr %7, ptr %8, align 8
  %.not = icmp eq i32 %3, 31
  br i1 %.not, label %.critedge, label %.lr.ph.preheader

.lr.ph.preheader:                                 ; preds = %4
  %9 = shl nuw nsw i32 1, %3
  br label %.lr.ph

.lr.ph:                                           ; preds = %.lr.ph.preheader, %46
  %.031 = phi i32 [ %47, %46 ], [ 0, %.lr.ph.preheader ]
  %10 = tail call ptr @Extra_bddBitsToCube(ptr noundef %0, i32 noundef %.031, i32 noundef %3, ptr noundef %2, i32 noundef 1) #18
  tail call void @Cudd_Ref(ptr noundef %10) #18
  %11 = tail call ptr @Cudd_Cofactor(ptr noundef %0, ptr noundef %1, ptr noundef %10) #18
  tail call void @Cudd_Ref(ptr noundef %11) #18
  tail call void @Cudd_RecursiveDeref(ptr noundef %0, ptr noundef %10) #18
  %12 = load i32, ptr %6, align 4
  %13 = icmp sgt i32 %12, 0
  br i1 %13, label %.lr.ph.i, label %._crit_edge.i

.lr.ph.i:                                         ; preds = %.lr.ph
  %14 = load ptr, ptr %8, align 8
  %wide.trip.count.i = zext nneg i32 %12 to i64
  br label %16

15:                                               ; preds = %16
  %indvars.iv.next.i = add nuw nsw i64 %indvars.iv.i, 1
  %exitcond.not.i = icmp eq i64 %indvars.iv.next.i, %wide.trip.count.i
  br i1 %exitcond.not.i, label %._crit_edge.i, label %16, !llvm.loop !36

16:                                               ; preds = %15, %.lr.ph.i
  %indvars.iv.i = phi i64 [ 0, %.lr.ph.i ], [ %indvars.iv.next.i, %15 ]
  %17 = getelementptr inbounds nuw ptr, ptr %14, i64 %indvars.iv.i
  %18 = load ptr, ptr %17, align 8
  %19 = icmp eq ptr %18, %11
  br i1 %19, label %Vec_PtrPushUnique.exit, label %15

._crit_edge.i:                                    ; preds = %15, %.lr.ph
  %20 = load i32, ptr %5, align 8
  %21 = icmp eq i32 %12, %20
  br i1 %21, label %22, label %.Vec_PtrGrow.exit11_crit_edge.i.i

.Vec_PtrGrow.exit11_crit_edge.i.i:                ; preds = %._crit_edge.i
  %.pre.i.i = load ptr, ptr %8, align 8
  br label %Vec_PtrPushUnique.exit.thread

22:                                               ; preds = %._crit_edge.i
  %23 = icmp slt i32 %12, 16
  br i1 %23, label %24, label %31

24:                                               ; preds = %22
  %25 = load ptr, ptr %8, align 8
  %.not9.i.i.i = icmp eq ptr %25, null
  br i1 %.not9.i.i.i, label %28, label %26

26:                                               ; preds = %24
  %27 = tail call dereferenceable_or_null(128) ptr @realloc(ptr noundef nonnull %25, i64 noundef 128) #19
  br label %Vec_PtrGrow.exit.i.i

28:                                               ; preds = %24
  %29 = tail call noalias dereferenceable_or_null(128) ptr @malloc(i64 noundef 128) #17
  br label %Vec_PtrGrow.exit.i.i

Vec_PtrGrow.exit.i.i:                             ; preds = %28, %26
  %30 = phi ptr [ %27, %26 ], [ %29, %28 ]
  store ptr %30, ptr %8, align 8
  store i32 16, ptr %5, align 8
  br label %Vec_PtrPushUnique.exit.thread

31:                                               ; preds = %22
  %32 = shl nuw nsw i32 %12, 1
  %33 = load ptr, ptr %8, align 8
  %.not9.i10.i.i = icmp eq ptr %33, null
  %34 = zext nneg i32 %32 to i64
  %35 = shl nuw nsw i64 %34, 3
  br i1 %.not9.i10.i.i, label %38, label %36

36:                                               ; preds = %31
  %37 = tail call ptr @realloc(ptr noundef nonnull %33, i64 noundef %35) #19
  br label %40

38:                                               ; preds = %31
  %39 = tail call noalias ptr @malloc(i64 noundef %35) #17
  br label %40

40:                                               ; preds = %38, %36
  %41 = phi ptr [ %37, %36 ], [ %39, %38 ]
  store ptr %41, ptr %8, align 8
  store i32 %32, ptr %5, align 8
  br label %Vec_PtrPushUnique.exit.thread

Vec_PtrPushUnique.exit.thread:                    ; preds = %.Vec_PtrGrow.exit11_crit_edge.i.i, %Vec_PtrGrow.exit.i.i, %40
  %42 = phi ptr [ %.pre.i.i, %.Vec_PtrGrow.exit11_crit_edge.i.i ], [ %41, %40 ], [ %30, %Vec_PtrGrow.exit.i.i ]
  %43 = add nsw i32 %12, 1
  store i32 %43, ptr %6, align 4
  %44 = sext i32 %12 to i64
  %45 = getelementptr inbounds ptr, ptr %42, i64 %44
  store ptr %11, ptr %45, align 8
  br label %46

Vec_PtrPushUnique.exit:                           ; preds = %16
  tail call void @Cudd_RecursiveDeref(ptr noundef %0, ptr noundef %11) #18
  br label %46

46:                                               ; preds = %Vec_PtrPushUnique.exit.thread, %Vec_PtrPushUnique.exit
  %47 = add nuw nsw i32 %.031, 1
  %exitcond.not = icmp eq i32 %47, %9
  br i1 %exitcond.not, label %._crit_edge, label %.lr.ph, !llvm.loop !37

._crit_edge:                                      ; preds = %46
  %.val27.pre = load i32, ptr %6, align 4
  %.pre.pre = load ptr, ptr %8, align 8
  %48 = icmp sgt i32 %.val27.pre, 0
  br i1 %48, label %.lr.ph34, label %.critedge

.lr.ph34:                                         ; preds = %._crit_edge
  %wide.trip.count = zext nneg i32 %.val27.pre to i64
  br label %49

49:                                               ; preds = %.lr.ph34, %49
  %indvars.iv = phi i64 [ 0, %.lr.ph34 ], [ %indvars.iv.next, %49 ]
  %50 = getelementptr inbounds nuw ptr, ptr %.pre.pre, i64 %indvars.iv
  %51 = load ptr, ptr %50, align 8
  tail call void @Cudd_RecursiveDeref(ptr noundef %0, ptr noundef %51) #18
  %indvars.iv.next = add nuw nsw i64 %indvars.iv, 1
  %exitcond36.not = icmp eq i64 %indvars.iv.next, %wide.trip.count
  br i1 %exitcond36.not, label %.critedge.thread, label %49, !llvm.loop !38

.critedge:                                        ; preds = %4, %._crit_edge
  %.val2742 = phi i32 [ %.val27.pre, %._crit_edge ], [ 0, %4 ]
  %.pre41 = phi ptr [ %.pre.pre, %._crit_edge ], [ %7, %4 ]
  %.not.i = icmp eq ptr %.pre41, null
  br i1 %.not.i, label %Vec_PtrFree.exit, label %.critedge.thread

.critedge.thread:                                 ; preds = %49, %.critedge
  %.pre4148 = phi ptr [ %.pre41, %.critedge ], [ %.pre.pre, %49 ]
  %.val274246 = phi i32 [ %.val2742, %.critedge ], [ %.val27.pre, %49 ]
  tail call void @free(ptr noundef nonnull %.pre4148) #18
  br label %Vec_PtrFree.exit

Vec_PtrFree.exit:                                 ; preds = %.critedge, %.critedge.thread
  %.val274247 = phi i32 [ %.val2742, %.critedge ], [ %.val274246, %.critedge.thread ]
  tail call void @free(ptr noundef nonnull %5) #18
  ret i32 %.val274247
}